target datalayout = "e-m:e-p270:32:32-p271:32:32-p272:64:64-i64:64-i128:128-f80:128-n8:16:32:64-S128"
target triple = "x86_64-pc-linux-gnu"

%struct._object = type { %union.anon, ptr }
%union.anon = type { i64 }
%struct.calliterobject = type { %struct._object, ptr, ptr }

; Function Attrs: nounwind uwtable
define internal i32 @calliter_traverse(ptr noundef %0, ptr noundef %1, ptr noundef %2) #0 {
  %4 = alloca i32, align 4
  %5 = alloca ptr, align 8
  %6 = alloca ptr, align 8
  %7 = alloca ptr, align 8
  %8 = alloca i32, align 4
  %9 = alloca i32, align 4
  %10 = alloca i32, align 4
  store ptr %0, ptr %5, align 8, !tbaa !9
  store ptr %1, ptr %6, align 8, !tbaa !9
  store ptr %2, ptr %7, align 8, !tbaa !9
  br label %11

11:                                               ; preds = %3
  %12 = load ptr, ptr %5, align 8, !tbaa !9
  %13 = getelementptr inbounds nuw %struct.calliterobject, ptr %12, i32 0, i32 1
  %14 = load ptr, ptr %13, align 8, !tbaa !101
  %15 = icmp ne ptr %14, null
  br i1 %15, label %16, label %31

16:                                               ; preds = %11
  call void @llvm.lifetime.start.p0(i64 4, ptr %8) #7
  %17 = load ptr, ptr %6, align 8, !tbaa !9
  %18 = load ptr, ptr %5, align 8, !tbaa !9
  %19 = getelementptr inbounds nuw %struct.calliterobject, ptr %18, i32 0, i32 1
  %20 = load ptr, ptr %19, align 8, !tbaa !101
  %21 = load ptr, ptr %7, align 8, !tbaa !9
  %22 = call i32 %17(ptr noundef %20, ptr noundef %21)
  store i32 %22, ptr %8, align 4, !tbaa !100
  %23 = load i32, ptr %8, align 4, !tbaa !100
  %24 = icmp ne i32 %23, 0
  br i1 %24, label %25, label %27

25:                                               ; preds = %16
  %26 = load i32, ptr %8, align 4, !tbaa !100
  store i32 %26, ptr %4, align 4
  store i32 1, ptr %9, align 4
  br label %28

27:                                               ; preds = %16
  store i32 0, ptr %9, align 4
  br label %28

28:                                               ; preds = %27, %25
  call void @llvm.lifetime.end.p0(i64 4, ptr %8) #7
  %29 = load i32, ptr %9, align 4
  switch i32 %29, label %57 [
    i32 0, label %30
    i32 1, label %55
  ]

30:                                               ; preds = %28
  br label %31

31:                                               ; preds = %30, %11
  br label %32

32:                                               ; preds = %31
  br label %33

33:                                               ; preds = %32
  %34 = load ptr, ptr %5, align 8, !tbaa !9
  %35 = getelementptr inbounds nuw %struct.calliterobject, ptr %34, i32 0, i32 2
  %36 = load ptr, ptr %35, align 8, !tbaa !103
  %37 = icmp ne ptr %36, null
  br i1 %37, label %38, label %53

38:                                               ; preds = %33
  call void @llvm.lifetime.start.p0(i64 4, ptr %10) #7
  %39 = load ptr, ptr %6, align 8, !tbaa !9
  %40 = load ptr, ptr %5, align 8, !tbaa !9
  %41 = getelementptr inbounds nuw %struct.calliterobject, ptr %40, i32 0, i32 2
  %42 = load ptr, ptr %41, align 8, !tbaa !103
  %43 = load ptr, ptr %7, align 8, !tbaa !9
  %44 = call i32 %39(ptr noundef %42, ptr noundef %43)
  store i32 %44, ptr %10, align 4, !tbaa !100
  %45 = load i32, ptr %10, align 4, !tbaa !100
  %46 = icmp ne i32 %45, 0
  br i1 %46, label %47, label %49

47:                                               ; preds = %38
  %48 = load i32, ptr %10, align 4, !tbaa !100
  store i32 %48, ptr %4, align 4
  store i32 1, ptr %9, align 4
  br label %50

49:                                               ; preds = %38
  store i32 0, ptr %9, align 4
  br label %50

50:                                               ; preds = %49, %47
  call void @llvm.lifetime.end.p0(i64 4, ptr %10) #7
  %51 = load i32, ptr %9, align 4
  switch i32 %51, label %57 [
    i32 0, label %52
    i32 1, label %55
  ]

52:                                               ; preds = %50
  br label %53

53:                                               ; preds = %52, %33
  br label %54

54:                                               ; preds = %53
  store i32 0, ptr %4, align 4
  br label %55

55:                                               ; preds = %54, %50, %28
  %56 = load i32, ptr %4, align 4
  ret i32 %56

57:                                               ; preds = %50, %28
  unreachable
}